(dp0
cnumpy.core.multiarray
scalar
p1
(cnumpy
dtype
p2
(S'S2'
p3
I0
I1
tp4
Rp5
(I3
S'|'
p6
NNNI2
I1
I0
tp7
bS'Pr'
p8
tp9
Rp10
g1
(g2
(S'f8'
p11
I0
I1
tp12
Rp13
(I3
S'<'
p14
NNNI-1
I-1
I0
tp15
bS'\xef\xe7\xdc5\xbf\x0e\x9d='
p16
tp17
Rp18
sg1
(g2
(S'S2'
p19
I0
I1
tp20
Rp21
(I3
S'|'
p22
NNNI2
I1
I0
tp23
bS'Ni'
p24
tp25
Rp26
g1
(g13
S'\xe6667\xe4\xf7\xbf>'
p27
tp28
Rp29
sg1
(g2
(S'S2'
p30
I0
I1
tp31
Rp32
(I3
S'|'
p33
NNNI2
I1
I0
tp34
bS'Yb'
p35
tp36
Rp37
g1
(g13
S'\x85\x16IB[}\xa5='
p38
tp39
Rp40
sg1
(g2
(S'S2'
p41
I0
I1
tp42
Rp43
(I3
S'|'
p44
NNNI2
I1
I0
tp45
bS'Pd'
p46
tp47
Rp48
g1
(g13
S'i,\\%\x02\xda\xcc='
p49
tp50
Rp51
sg1
(g2
(S'S2'
p52
I0
I1
tp53
Rp54
(I3
S'|'
p55
NNNI2
I1
I0
tp56
bS'Pt'
p57
tp58
Rp59
g1
(g13
S'5@\xae*\x06\xed\xca='
p60
tp61
Rp62
sg1
(g2
(S'S2'
p63
I0
I1
tp64
Rp65
(I3
S'|'
p66
NNNI2
I1
I0
tp67
bS'Ru'
p68
tp69
Rp70
g1
(g13
S'\x00\xf8\x91\xe1S\x04\xd3='
p71
tp72
Rp73
sg1
(g2
(S'S2'
p74
I0
I1
tp75
Rp76
(I3
S'|'
p77
NNNI2
I1
I0
tp78
bS'Na'
p79
tp80
Rp81
g1
(g13
S'\xe5\x8a+\xf6\x9d\xc7\xc2>'
p82
tp83
Rp84
sg1
(g2
(S'S2'
p85
I0
I1
tp86
Rp87
(I3
S'|'
p88
NNNI2
I1
I0
tp89
bS'Nb'
p90
tp91
Rp92
g1
(g13
S'\x15\x8e\x81F4\x9a\xc0='
p93
tp94
Rp95
sg1
(g2
(S'S2'
p96
I0
I1
tp97
Rp98
(I3
S'|'
p99
NNNI2
I1
I0
tp100
bS'Nd'
p101
tp102
Rp103
g1
(g13
S'\xa48\xa4\x98A4\xc2='
p104
tp105
Rp106
sg1
(g2
(S'S2'
p107
I0
I1
tp108
Rp109
(I3
S'|'
p110
NNNI2
I1
I0
tp111
bS'Mg'
p112
tp113
Rp114
g1
(g13
S'\x9e\xe9\x7f\xd2M\xdf\x04?'
p115
tp116
Rp117
sg1
(g2
(S'S2'
p118
I0
I1
tp119
Rp120
(I3
S'|'
p121
NNNI2
I1
I0
tp122
bS'Li'
p123
tp124
Rp125
g1
(g13
S'\x98\xae\xa0\xa8m]">'
p126
tp127
Rp128
sg1
(g2
(S'S2'
p129
I0
I1
tp130
Rp131
(I3
S'|'
p132
NNNI2
I1
I0
tp133
bS'Dy'
p134
tp135
Rp136
g1
(g13
S'M\xa3\xdc\xfd\x87\x07\xb1='
p137
tp138
Rp139
sg1
(g2
(S'S1'
p140
I0
I1
tp141
Rp142
(I3
S'|'
p143
NNNI1
I1
I0
tp144
bS'Y'
p145
tp146
Rp147
g1
(g13
S'\rP\x9b\xb2\xc3p\xe8='
p148
tp149
Rp150
sg1
(g2
(S'S2'
p151
I0
I1
tp152
Rp153
(I3
S'|'
p154
NNNI2
I1
I0
tp155
bS'Tl'
p156
tp157
Rp158
g1
(g13
S'\x9e\x94\x1a\xcc\xc2"\x9f='
p159
tp160
Rp161
sg1
(g2
(S'S2'
p162
I0
I1
tp163
Rp164
(I3
S'|'
p165
NNNI2
I1
I0
tp166
bS'Tm'
p167
tp168
Rp169
g1
(g13
S'}8\x94\xfc??{='
p170
tp171
Rp172
sg1
(g2
(S'S2'
p173
I0
I1
tp174
Rp175
(I3
S'|'
p176
NNNI2
I1
I0
tp177
bS'Rb'
p178
tp179
Rp180
g1
(g13
S'C\x98\xf7\xd4&^\xf3='
p181
tp182
Rp183
sg1
(g2
(S'S2'
p184
I0
I1
tp185
Rp186
(I3
S'|'
p187
NNNI2
I1
I0
tp188
bS'Ti'
p189
tp190
Rp191
g1
(g13
S'\x00lt\xb9\xa8\xa2y>'
p192
tp193
Rp194
sg1
(g2
(S'S2'
p195
I0
I1
tp196
Rp197
(I3
S'|'
p198
NNNI2
I1
I0
tp199
bS'Te'
p200
tp201
Rp202
g1
(g13
S'y\\^\xd2\x80\x02\xe9='
p203
tp204
Rp205
sg1
(g2
(S'S2'
p206
I0
I1
tp207
Rp208
(I3
S'|'
p209
NNNI2
I1
I0
tp210
bS'Rh'
p211
tp212
Rp213
g1
(g13
S'\xfam\x9a#\xe1\x0f\xaf='
p214
tp215
Rp216
sg1
(g2
(S'S2'
p217
I0
I1
tp218
Rp219
(I3
S'|'
p220
NNNI2
I1
I0
tp221
bS'La'
p222
tp223
Rp224
g1
(g13
S'>s\xaf[i\x8d\xb3='
p225
tp226
Rp227
sg1
(g2
(S'S2'
p228
I0
I1
tp229
Rp230
(I3
S'|'
p231
NNNI2
I1
I0
tp232
bS'Ta'
p233
tp234
Rp235
g1
(g13
S'\xe8.9\x90S\x99l='
p236
tp237
Rp238
sg1
(g2
(S'S2'
p239
I0
I1
tp240
Rp241
(I3
S'|'
p242
NNNI2
I1
I0
tp243
bS'Be'
p244
tp245
Rp246
g1
(g13
S'\xafp\x10\xe2j\xc6\xb9='
p247
tp248
Rp249
sg1
(g2
(S'S2'
p250
I0
I1
tp251
Rp252
(I3
S'|'
p253
NNNI2
I1
I0
tp254
bS'Xe'
p255
tp256
Rp257
g1
(g13
S'\xe7-\xc0\xa7\x0e\xb7\xec='
p258
tp259
Rp260
sg1
(g2
(S'S2'
p261
I0
I1
tp262
Rp263
(I3
S'|'
p264
NNNI2
I1
I0
tp265
bS'Ba'
p266
tp267
Rp268
g1
(g13
S'E\xdd<\xd5W\xe2\xe7='
p269
tp270
Rp271
sg1
(g2
(S'S2'
p272
I0
I1
tp273
Rp274
(I3
S'|'
p275
NNNI2
I1
I0
tp276
bS'Tb'
p277
tp278
Rp279
g1
(g13
S'\xe8\x0e%Y\x83\x97\x85='
p280
tp281
Rp282
sg1
(g2
(S'S2'
p283
I0
I1
tp284
Rp285
(I3
S'|'
p286
NNNI2
I1
I0
tp287
bS'CL'
p288
tp289
Rp290
g1
(g13
S'\x89\xf6\xe8J\xab\xc7\x8a>'
p291
tp292
Rp293
sg1
(g2
(S'S2'
p294
I0
I1
tp295
Rp296
(I3
S'|'
p297
NNNI2
I1
I0
tp298
bS'As'
p299
tp300
Rp301
g1
(g13
S'nFJ\xcd\x02\x1c\xf0='
p302
tp303
Rp304
sg1
(g2
(S'S1'
p305
I0
I1
tp306
Rp307
(I3
S'|'
p308
NNNI1
I1
I0
tp309
bS'U'
p310
tp311
Rp312
g1
(g13
S'N\x9c\xbc\xe8T\x0bp='
p313
tp314
Rp315
sg1
(g2
(S'S1'
p316
I0
I1
tp317
Rp318
(I3
S'|'
p319
NNNI1
I1
I0
tp320
bS'W'
p321
tp322
Rp323
g1
(g13
S'!\xbdI\x84\xce\x14\x97='
p324
tp325
Rp326
sg1
(g2
(S'S2'
p327
I0
I1
tp328
Rp329
(I3
S'|'
p330
NNNI2
I1
I0
tp331
bS'Gd'
p332
tp333
Rp334
g1
(g13
S'\x97\xd3\x0ca\xdfZ\xae='
p335
tp336
Rp337
sg1
(g2
(S'S2'
p338
I0
I1
tp339
Rp340
(I3
S'|'
p341
NNNI2
I1
I0
tp342
bS'Fe'
p343
tp344
Rp345
g1
(g13
S'\xefb\xc6V3\xf7\x00?'
p346
tp347
Rp348
sg1
(g2
(S'S2'
p349
I0
I1
tp350
Rp351
(I3
S'|'
p352
NNNI2
I1
I0
tp353
bS'Br'
p354
tp355
Rp356
g1
(g13
S'\x88\xad\xd0\xcc\xa4\xa5\xfc='
p357
tp358
Rp359
sg1
(g2
(S'S2'
p360
I0
I1
tp361
Rp362
(I3
S'|'
p363
NNNI2
I1
I0
tp364
bS'Sr'
p365
tp366
Rp367
g1
(g13
S'o\xa7I\xb2\x86\x9f\x0e>'
p368
tp369
Rp370
sg1
(g2
(S'S2'
p371
I0
I1
tp372
Rp373
(I3
S'|'
p374
NNNI2
I1
I0
tp375
bS'Hf'
p376
tp377
Rp378
g1
(g13
S'\xc9_\xf0\xc27\x80\x9a='
p379
tp380
Rp381
sg1
(g2
(S'S2'
p382
I0
I1
tp383
Rp384
(I3
S'|'
p385
NNNI2
I1
I0
tp386
bS'Mo'
p387
tp388
Rp389
g1
(g13
S'&\\\xdb\x12\xb2\xdc\xda='
p390
tp391
Rp392
sg1
(g2
(S'S2'
p393
I0
I1
tp394
Rp395
(I3
S'|'
p396
NNNI2
I1
I0
tp397
bS'He'
p398
tp399
Rp400
g1
(g13
S'\xf1\xb9\x9b\xac\xb4\xc9\xb8?'
p401
tp402
Rp403
sg1
(g2
(S'S1'
p404
I0
I1
tp405
Rp406
(I3
S'|'
p407
NNNI1
I1
I0
tp408
bS'C'
p409
tp410
Rp411
g1
(g13
S'\x01\xcb|8\xd4\x0c2?'
p412
tp413
Rp414
sg1
(g2
(S'S1'
p415
I0
I1
tp416
Rp417
(I3
S'|'
p418
NNNI1
I1
I0
tp419
bS'B'
p420
tp421
Rp422
g1
(g13
S'\x00]\x8a\xc24\xe4\x08>'
p423
tp424
Rp425
sg1
(g2
(S'S1'
p426
I0
I1
tp427
Rp428
(I3
S'|'
p429
NNNI1
I1
I0
tp430
bS'F'
p431
tp432
Rp433
g1
(g13
S'-\xaa*\x0bE\x97`>'
p434
tp435
Rp436
sg1
(g2
(S'S1'
p437
I0
I1
tp438
Rp439
(I3
S'|'
p440
NNNI1
I1
I0
tp441
bS'I'
p442
tp443
Rp444
g1
(g13
S'x]\x85\xb0\x92s\xc7='
p445
tp446
Rp447
sg1
(g2
(S'S1'
p448
I0
I1
tp449
Rp450
(I3
S'|'
p451
NNNI1
I1
I0
tp452
bS'H'
p453
tp454
Rp455
g1
(g13
S'\x00\x00\x00\x00\x00\x00\xf0?'
p456
tp457
Rp458
sg1
(g2
(S'S1'
p459
I0
I1
tp460
Rp461
(I3
S'|'
p462
NNNI1
I1
I0
tp463
bS'K'
p464
tp465
Rp466
g1
(g13
S'<Y\xa5D~f\x83>'
p467
tp468
Rp469
sg1
(g2
(S'S2'
p470
I0
I1
tp471
Rp472
(I3
S'|'
p473
NNNI2
I1
I0
tp474
bS'Mn'
p475
tp476
Rp477
g1
(g13
S'\x06u\xe2\xc9\xa5\xcf\x97>'
p478
tp479
Rp480
sg1
(g2
(S'S2'
p481
I0
I1
tp482
Rp483
(I3
S'|'
p484
NNNI2
I1
I0
tp485
bS'Lu'
p486
tp487
Rp488
g1
(g13
S'\xf9\x11M\xdeO\x05z='
p489
tp490
Rp491
sg1
(g2
(S'S2'
p492
I0
I1
tp493
Rp494
(I3
S'|'
p495
NNNI2
I1
I0
tp496
bS'AL'
p497
tp498
Rp499
g1
(g13
S'\x18k=\xf1\x1e%\xcb>'
p500
tp501
Rp502
sg1
(g2
(S'S1'
p503
I0
I1
tp504
Rp505
(I3
S'|'
p506
NNNI1
I1
I0
tp507
bS'O'
p508
tp509
Rp510
g1
(g13
S'\xf4\x87\xa8\xdb\xa2\xbeC?'
p511
tp512
Rp513
sg1
(g2
(S'S2'
p514
I0
I1
tp515
Rp516
(I3
S'|'
p517
NNNI2
I1
I0
tp518
bS'Ne'
p519
tp520
Rp521
g1
(g13
S'\x0e\x0b\xc1\xb1@\x80 ?'
p522
tp523
Rp524
sg1
(g2
(S'S1'
p525
I0
I1
tp526
Rp527
(I3
S'|'
p528
NNNI1
I1
I0
tp529
bS'P'
p530
tp531
Rp532
g1
(g13
S'z"1\xf4K\xb7\x95>'
p533
tp534
Rp535
sg1
(g2
(S'S1'
p536
I0
I1
tp537
Rp538
(I3
S'|'
p539
NNNI1
I1
I0
tp540
bS'S'
p541
tp542
Rp543
g1
(g13
S'XP\x9di\x83\x01\xf1>'
p544
tp545
Rp546
sg1
(g2
(S'S2'
p547
I0
I1
tp548
Rp549
(I3
S'|'
p550
NNNI2
I1
I0
tp551
bS'Th'
p552
tp553
Rp554
g1
(g13
S'~\x1a\x82\xa05\xe0}='
p555
tp556
Rp557
sg1
(g2
(S'S2'
p558
I0
I1
tp559
Rp560
(I3
S'|'
p561
NNNI2
I1
I0
tp562
bS'Re'
p563
tp564
Rp565
g1
(g13
S'\x9b"*\xdf&\xb1\x83='
p566
tp567
Rp568
sg1
(g2
(S'S2'
p569
I0
I1
tp570
Rp571
(I3
S'|'
p572
NNNI2
I1
I0
tp573
bS'Sn'
p574
tp575
Rp576
g1
(g13
S'@\x04\xa8\x9c\xcb\xf8\xe2='
p577
tp578
Rp579
sg1
(g2
(S'S2'
p580
I0
I1
tp581
Rp582
(I3
S'|'
p583
NNNI2
I1
I0
tp584
bS'Sm'
p585
tp586
Rp587
g1
(g13
S'W\n\xd2\x9e\xa0\x80\xa6='
p588
tp589
Rp590
sg1
(g2
(S'S1'
p591
I0
I1
tp592
Rp593
(I3
S'|'
p594
NNNI1
I1
I0
tp595
bS'V'
p596
tp597
Rp598
g1
(g13
S'\xbbG\xa5\xdf\xf3\x8bG>'
p599
tp600
Rp601
sg1
(g2
(S'S2'
p602
I0
I1
tp603
Rp604
(I3
S'|'
p605
NNNI2
I1
I0
tp606
bS'Sc'
p607
tp608
Rp609
g1
(g13
S'T_\x9e#\xc1\xa5\x16>'
p610
tp611
Rp612
sg1
(g2
(S'S2'
p613
I0
I1
tp614
Rp615
(I3
S'|'
p616
NNNI2
I1
I0
tp617
bS'Sb'
p618
tp619
Rp620
g1
(g13
S'\x7f\xab\xaf\xa6%p\xaa='
p621
tp622
Rp623
sg1
(g2
(S'S2'
p624
I0
I1
tp625
Rp626
(I3
S'|'
p627
NNNI2
I1
I0
tp628
bS'Bi'
p629
tp630
Rp631
g1
(g13
S'\xf9\x90H\xc4p\x9e\x97='
p632
tp633
Rp634
sg1
(g2
(S'S1'
p635
I0
I1
tp636
Rp637
(I3
S'|'
p638
NNNI1
I1
I0
tp639
bS'N'
p640
tp641
Rp642
g1
(g13
S'\xd8\xcc\x921\xd0N\x15?'
p643
tp644
Rp645
sg1
(g2
(S'S2'
p646
I0
I1
tp647
Rp648
(I3
S'|'
p649
NNNI2
I1
I0
tp650
bS'Os'
p651
tp652
Rp653
g1
(g13
S'}\xea\xea\xd4\x8b\xeb\xbc='
p654
tp655
Rp656
sg1
(g2
(S'S2'
p657
I0
I1
tp658
Rp659
(I3
S'|'
p660
NNNI2
I1
I0
tp661
bS'Se'
p662
tp663
Rp664
g1
(g13
S'1\x87W>\x05\x98&>'
p665
tp666
Rp667
sg1
(g2
(S'S2'
p668
I0
I1
tp669
Rp670
(I3
S'|'
p671
NNNI2
I1
I0
tp672
bS'Hg'
p673
tp674
Rp675
g1
(g13
S'>s\xaf[i\x8d\xb3='
p676
tp677
Rp678
sg1
(g2
(S'S2'
p679
I0
I1
tp680
Rp681
(I3
S'|'
p682
NNNI2
I1
I0
tp683
bS'Zn'
p684
tp685
Rp686
g1
(g13
S'\xe0\xa8\xb8\xcfC\xe8j>'
p687
tp688
Rp689
sg1
(g2
(S'S2'
p690
I0
I1
tp691
Rp692
(I3
S'|'
p693
NNNI2
I1
I0
tp694
bS'Co'
p695
tp696
Rp697
g1
(g13
S'\x00\xcc\xa0oJ{x>'
p698
tp699
Rp700
sg1
(g2
(S'S2'
p701
I0
I1
tp702
Rp703
(I3
S'|'
p704
NNNI2
I1
I0
tp705
bS'Ag'
p706
tp707
Rp708
g1
(g13
S'\xfcW\x11&e\xf3\xb4='
p709
tp710
Rp711
sg1
(g2
(S'S2'
p712
I0
I1
tp713
Rp714
(I3
S'|'
p715
NNNI2
I1
I0
tp716
bS'Kr'
p717
tp718
Rp719
g1
(g13
S'\x98\xae\xa0\xa8m]">'
p720
tp721
Rp722
sg1
(g2
(S'S2'
p723
I0
I1
tp724
Rp725
(I3
S'|'
p726
NNNI2
I1
I0
tp727
bS'Ca'
p728
tp729
Rp730
g1
(g13
S'\xf9*\x99k1\xaa\xc3>'
p731
tp732
Rp733
sg1
(g2
(S'S2'
p734
I0
I1
tp735
Rp736
(I3
S'|'
p737
NNNI2
I1
I0
tp738
bS'Ir'
p739
tp740
Rp741
g1
(g13
S'X\x92\xba[\x05C\xbc='
p742
tp743
Rp744
sg1
(g2
(S'S2'
p745
I0
I1
tp746
Rp747
(I3
S'|'
p748
NNNI2
I1
I0
tp749
bS'Eu'
p750
tp751
Rp752
g1
(g13
S'\x05\x11\xbdS\x8d\xb8\x90='
p753
tp754
Rp755
sg1
(g2
(S'S2'
p756
I0
I1
tp757
Rp758
(I3
S'|'
p759
NNNI2
I1
I0
tp760
bS'Si'
p761
tp762
Rp763
g1
(g13
S'\xbdS\x85\xf0\xace\x04?'
p764
tp765
Rp766
sg1
(g2
(S'S2'
p767
I0
I1
tp768
Rp769
(I3
S'|'
p770
NNNI2
I1
I0
tp771
bS'Ce'
p772
tp773
Rp774
g1
(g13
S'}\xa4\xa5\xc2\xf1 \xc9='
p775
tp776
Rp777
sg1
(g2
(S'S2'
p778
I0
I1
tp779
Rp780
(I3
S'|'
p781
NNNI2
I1
I0
tp782
bS'Cd'
p783
tp784
Rp785
g1
(g13
S'\xde;\xd6\xd9"\x90\xd0='
p786
tp787
Rp788
sg1
(g2
(S'S2'
p789
I0
I1
tp790
Rp791
(I3
S'|'
p792
NNNI2
I1
I0
tp793
bS'Ho'
p794
tp795
Rp796
g1
(g13
S'\x943\xcf\xee\xaf5\x8f='
p797
tp798
Rp799
sg1
(g2
(S'S2'
p800
I0
I1
tp801
Rp802
(I3
S'|'
p803
NNNI2
I1
I0
tp804
bS'Ge'
p805
tp806
Rp807
g1
(g13
S':Ww\x89V/3>'
p808
tp809
Rp810
sg1
(g2
(S'S2'
p811
I0
I1
tp812
Rp813
(I3
S'|'
p814
NNNI2
I1
I0
tp815
bS'Ar'
p816
tp817
Rp818
g1
(g13
S'G\x12[<\x8f\xc3\xcd>'
p819
tp820
Rp821
sg1
(g2
(S'S2'
p822
I0
I1
tp823
Rp824
(I3
S'|'
p825
NNNI2
I1
I0
tp826
bS'Au'
p827
tp828
Rp829
g1
(g13
S'\xad|\xbb\x7fi\xae\xa0='
p830
tp831
Rp832
sg1
(g2
(S'S2'
p833
I0
I1
tp834
Rp835
(I3
S'|'
p836
NNNI2
I1
I0
tp837
bS'Zr'
p838
tp839
Rp840
g1
(g13
S'\x88\xad\xd0\xcc\xa4\xa5\xfc='
p841
tp842
Rp843
sg1
(g2
(S'S2'
p844
I0
I1
tp845
Rp846
(I3
S'|'
p847
NNNI2
I1
I0
tp848
bS'Ga'
p849
tp850
Rp851
g1
(g13
S'\xeb\xa5\xd0\xe3gD\x18>'
p852
tp853
Rp854
sg1
(g2
(S'S2'
p855
I0
I1
tp856
Rp857
(I3
S'|'
p858
NNNI2
I1
I0
tp859
bS'In'
p860
tp861
Rp862
g1
(g13
S'e&\x83\x02Sm\x9e='
p863
tp864
Rp865
sg1
(g2
(S'S2'
p866
I0
I1
tp867
Rp868
(I3
S'|'
p869
NNNI2
I1
I0
tp870
bS'Cs'
p871
tp872
Rp873
g1
(g13
S'\t\x8c\x7f>\x1a\xc9\xaf='
p874
tp875
Rp876
sg1
(g2
(S'S2'
p877
I0
I1
tp878
Rp879
(I3
S'|'
p880
NNNI2
I1
I0
tp881
bS'Cr'
p882
tp883
Rp884
g1
(g13
S'\x8ci\xd3a*\xd1\xa0>'
p885
tp886
Rp887
sg1
(g2
(S'S2'
p888
I0
I1
tp889
Rp890
(I3
S'|'
p891
NNNI2
I1
I0
tp892
bS'Pb'
p893
tp894
Rp895
g1
(g13
S'\x01\x18J\n\xa0\xb4\xe1='
p896
tp897
Rp898
sg1
(g2
(S'S2'
p899
I0
I1
tp900
Rp901
(I3
S'|'
p902
NNNI2
I1
I0
tp903
bS'Cu'
p904
tp905
Rp906
g1
(g13
S'\xe3#\x0es\x03oV>'
p907
tp908
Rp909
sg1
(g2
(S'S2'
p910
I0
I1
tp911
Rp912
(I3
S'|'
p913
NNNI2
I1
I0
tp914
bS'Er'
p915
tp916
Rp917
g1
(g13
S'\x95dy\xe1\x7f\xfd\xa5='
p918
tp919
Rp920
s.